; ModuleID = 'probe1.bbe571d6d52eb2d0-cgu.0'
source_filename = "probe1.bbe571d6d52eb2d0-cgu.0"
target datalayout = "e-m:e-p270:32:32-p271:32:32-p272:64:64-i64:64-f80:128-n8:16:32:64-S128"
target triple = "x86_64-unknown-linux-gnu"

; core::f64::<impl f64>::to_int_unchecked
; Function Attrs: inlinehint nonlazybind uwtable
define i32 @"_ZN4core3f6421_$LT$impl$u20$f64$GT$16to_int_unchecked17hc3a2cb5a4e56927dE"(double %self) unnamed_addr #0 {
start:
; call <f64 as core::convert::num::FloatToInt<i32>>::to_int_unchecked
  %_0 = call i32 @"_ZN65_$LT$f64$u20$as$u20$core..convert..num..FloatToInt$LT$i32$GT$$GT$16to_int_unchecked17he78ea7a973511521E"(double %self)
  ret i32 %_0
}

; <f64 as core::convert::num::FloatToInt<i32>>::to_int_unchecked
; Function Attrs: inlinehint nonlazybind uwtable
define internal i32 @"_ZN65_$LT$f64$u20$as$u20$core..convert..num..FloatToInt$LT$i32$GT$$GT$16to_int_unchecked17he78ea7a973511521E"(double %self) unnamed_addr #0 {
start:
  %0 = alloca i32, align 4
  %1 = fptosi double %self to i32
  store i32 %1, ptr %0, align 4
  %_0 = load i32, ptr %0, align 4, !noundef !3
  ret i32 %_0
}

; probe1::probe
; Function Attrs: nonlazybind uwtable
define void @_ZN6probe15probe17h193209217cbe9a99E() unnamed_addr #1 {
start:
; call core::f64::<impl f64>::to_int_unchecked
  %_1 = call i32 @"_ZN4core3f6421_$LT$impl$u20$f64$GT$16to_int_unchecked17hc3a2cb5a4e56927dE"(double 1.000000e+00)
  ret void
}

attributes #0 = { inlinehint nonlazybind uwtable "probe-stack"="inline-asm" "target-cpu"="skylake" "target-features"="+prfchw,-cldemote,+avx,+aes,+sahf,+pclmul,-xop,+crc32,+xsaves,-avx512fp16,-sm4,+sse4.1,-avx512ifma,+xsave,-avx512pf,+sse4.2,-tsxldtrk,-ptwrite,-widekl,-sm3,+invpcid,+64bit,+xsavec,-avx512vpopcntdq,+cmov,-avx512vp2intersect,-avx512cd,+movbe,-avxvnniint8,-avx512er,-amx-int8,-kl,-sha512,-avxvnni,-rtm,+adx,+avx2,-hreset,-movdiri,-serialize,-vpclmulqdq,-avx512vl,-uintr,+clflushopt,-raoint,-cmpccxadd,+bmi,-amx-tile,+sse,-gfni,-avxvnniint16,-amx-fp16,+xsaveopt,+rdrnd,-avx512f,-amx-bf16,-avx512bf16,-avx512vnni,+cx8,-avx512bw,+sse3,-pku,+fsgsbase,-clzero,-mwaitx,-lwp,+lzcnt,-sha,-movdir64b,-wbnoinvd,-enqcmd,-prefetchwt1,-avxneconvert,-tbm,-pconfig,-amx-complex,+ssse3,+cx16,+bmi2,+fma,+popcnt,-avxifma,+f16c,-avx512bitalg,-rdpru,-clwb,+mmx,+sse2,+rdseed,-avx512vbmi2,-prefetchi,-rdpid,-fma4,-avx512vbmi,-shstk,-vaes,-waitpkg,+sgx,+fxsr,-avx512dq,-sse4a" }
attributes #1 = { nonlazybind uwtable "probe-stack"="inline-asm" "target-cpu"="skylake" "target-features"="+prfchw,-cldemote,+avx,+aes,+sahf,+pclmul,-xop,+crc32,+xsaves,-avx512fp16,-sm4,+sse4.1,-avx512ifma,+xsave,-avx512pf,+sse4.2,-tsxldtrk,-ptwrite,-widekl,-sm3,+invpcid,+64bit,+xsavec,-avx512vpopcntdq,+cmov,-avx512vp2intersect,-avx512cd,+movbe,-avxvnniint8,-avx512er,-amx-int8,-kl,-sha512,-avxvnni,-rtm,+adx,+avx2,-hreset,-movdiri,-serialize,-vpclmulqdq,-avx512vl,-uintr,+clflushopt,-raoint,-cmpccxadd,+bmi,-amx-tile,+sse,-gfni,-avxvnniint16,-amx-fp16,+xsaveopt,+rdrnd,-avx512f,-amx-bf16,-avx512bf16,-avx512vnni,+cx8,-avx512bw,+sse3,-pku,+fsgsbase,-clzero,-mwaitx,-lwp,+lzcnt,-sha,-movdir64b,-wbnoinvd,-enqcmd,-prefetchwt1,-avxneconvert,-tbm,-pconfig,-amx-complex,+ssse3,+cx16,+bmi2,+fma,+popcnt,-avxifma,+f16c,-avx512bitalg,-rdpru,-clwb,+mmx,+sse2,+rdseed,-avx512vbmi2,-prefetchi,-rdpid,-fma4,-avx512vbmi,-shstk,-vaes,-waitpkg,+sgx,+fxsr,-avx512dq,-sse4a" }

!llvm.module.flags = !{!0, !1}
!llvm.ident = !{!2}

!0 = !{i32 8, !"PIC Level", i32 2}
!1 = !{i32 2, !"RtLibUseGOT", i32 1}
!2 = !{!"rustc version 1.74.0-nightly (58eefc33a 2023-08-24)"}
!3 = !{}
