; ModuleID = 'probe4.4b29f8c5dfd44a5c-cgu.0'
source_filename = "probe4.4b29f8c5dfd44a5c-cgu.0"
target datalayout = "e-m:e-p270:32:32-p271:32:32-p272:64:64-i64:64-f80:128-n8:16:32:64-S128"
target triple = "x86_64-unknown-linux-gnu"

@alloc_c68728a1856ea23aff9d966161e7b8a0 = private unnamed_addr constant <{ [75 x i8] }> <{ [75 x i8] c"/rustc/58eefc33adf769a1abe12ad94b3e6811185b4ce5/library/core/src/num/mod.rs" }>, align 1
@alloc_17949beb17b872c27350642a3c73b165 = private unnamed_addr constant <{ ptr, [16 x i8] }> <{ ptr @alloc_c68728a1856ea23aff9d966161e7b8a0, [16 x i8] c"K\00\00\00\00\00\00\00w\04\00\00\05\00\00\00" }>, align 8
@str.0 = internal constant [25 x i8] c"attempt to divide by zero"

; probe4::probe
; Function Attrs: nonlazybind uwtable
define void @_ZN6probe45probe17hffb12616c384e8d0E() unnamed_addr #0 {
start:
  %0 = call i1 @llvm.expect.i1(i1 false, i1 false)
  br i1 %0, label %panic.i, label %"_ZN4core3num21_$LT$impl$u20$u32$GT$10div_euclid17h16ef61b3e3169624E.exit"

panic.i:                                          ; preds = %start
; call core::panicking::panic
  call void @_ZN4core9panicking5panic17h80e33364b48fedf2E(ptr align 1 @str.0, i64 25, ptr align 8 @alloc_17949beb17b872c27350642a3c73b165) #3
  unreachable

"_ZN4core3num21_$LT$impl$u20$u32$GT$10div_euclid17h16ef61b3e3169624E.exit": ; preds = %start
  ret void
}

; Function Attrs: nocallback nofree nosync nounwind willreturn memory(none)
declare i1 @llvm.expect.i1(i1, i1) #1

; core::panicking::panic
; Function Attrs: cold noinline noreturn nonlazybind uwtable
declare void @_ZN4core9panicking5panic17h80e33364b48fedf2E(ptr align 1, i64, ptr align 8) unnamed_addr #2

attributes #0 = { nonlazybind uwtable "probe-stack"="inline-asm" "target-cpu"="skylake" "target-features"="+prfchw,-cldemote,+avx,+aes,+sahf,+pclmul,-xop,+crc32,+xsaves,-avx512fp16,-sm4,+sse4.1,-avx512ifma,+xsave,-avx512pf,+sse4.2,-tsxldtrk,-ptwrite,-widekl,-sm3,+invpcid,+64bit,+xsavec,-avx512vpopcntdq,+cmov,-avx512vp2intersect,-avx512cd,+movbe,-avxvnniint8,-avx512er,-amx-int8,-kl,-sha512,-avxvnni,-rtm,+adx,+avx2,-hreset,-movdiri,-serialize,-vpclmulqdq,-avx512vl,-uintr,+clflushopt,-raoint,-cmpccxadd,+bmi,-amx-tile,+sse,-gfni,-avxvnniint16,-amx-fp16,+xsaveopt,+rdrnd,-avx512f,-amx-bf16,-avx512bf16,-avx512vnni,+cx8,-avx512bw,+sse3,-pku,+fsgsbase,-clzero,-mwaitx,-lwp,+lzcnt,-sha,-movdir64b,-wbnoinvd,-enqcmd,-prefetchwt1,-avxneconvert,-tbm,-pconfig,-amx-complex,+ssse3,+cx16,+bmi2,+fma,+popcnt,-avxifma,+f16c,-avx512bitalg,-rdpru,-clwb,+mmx,+sse2,+rdseed,-avx512vbmi2,-prefetchi,-rdpid,-fma4,-avx512vbmi,-shstk,-vaes,-waitpkg,+sgx,+fxsr,-avx512dq,-sse4a" }
attributes #1 = { nocallback nofree nosync nounwind willreturn memory(none) }
attributes #2 = { cold noinline noreturn nonlazybind uwtable "probe-stack"="inline-asm" "target-cpu"="skylake" "target-features"="+prfchw,-cldemote,+avx,+aes,+sahf,+pclmul,-xop,+crc32,+xsaves,-avx512fp16,-sm4,+sse4.1,-avx512ifma,+xsave,-avx512pf,+sse4.2,-tsxldtrk,-ptwrite,-widekl,-sm3,+invpcid,+64bit,+xsavec,-avx512vpopcntdq,+cmov,-avx512vp2intersect,-avx512cd,+movbe,-avxvnniint8,-avx512er,-amx-int8,-kl,-sha512,-avxvnni,-rtm,+adx,+avx2,-hreset,-movdiri,-serialize,-vpclmulqdq,-avx512vl,-uintr,+clflushopt,-raoint,-cmpccxadd,+bmi,-amx-tile,+sse,-gfni,-avxvnniint16,-amx-fp16,+xsaveopt,+rdrnd,-avx512f,-amx-bf16,-avx512bf16,-avx512vnni,+cx8,-avx512bw,+sse3,-pku,+fsgsbase,-clzero,-mwaitx,-lwp,+lzcnt,-sha,-movdir64b,-wbnoinvd,-enqcmd,-prefetchwt1,-avxneconvert,-tbm,-pconfig,-amx-complex,+ssse3,+cx16,+bmi2,+fma,+popcnt,-avxifma,+f16c,-avx512bitalg,-rdpru,-clwb,+mmx,+sse2,+rdseed,-avx512vbmi2,-prefetchi,-rdpid,-fma4,-avx512vbmi,-shstk,-vaes,-waitpkg,+sgx,+fxsr,-avx512dq,-sse4a" }
attributes #3 = { noreturn }

!llvm.module.flags = !{!0, !1}
!llvm.ident = !{!2}

!0 = !{i32 8, !"PIC Level", i32 2}
!1 = !{i32 2, !"RtLibUseGOT", i32 1}
!2 = !{!"rustc version 1.74.0-nightly (58eefc33a 2023-08-24)"}
