	.text
	.intel_syntax noprefix
	.file	"rust_simd.f36e5b126b0b82b4-cgu.0"
	.section	".text._ZN4core3ptr462drop_in_place$LT$core..iter..adapters..map..map_fold$LT$usize$C$f64$C$$LP$$RP$$C$rust_simd..data..$u7b$$u7b$closure$u7d$$u7d$$C$core..iter..traits..iterator..Iterator..for_each..call$LT$f64$C$alloc..vec..Vec$LT$f64$GT$..extend_trusted$LT$core..iter..adapters..map..Map$LT$core..ops..range..Range$LT$usize$GT$$C$rust_simd..data..$u7b$$u7b$closure$u7d$$u7d$$GT$$GT$..$u7b$$u7b$closure$u7d$$u7d$$GT$..$u7b$$u7b$closure$u7d$$u7d$$GT$..$u7b$$u7b$closure$u7d$$u7d$$GT$17h50cb6892e4b22384E","ax",@progbits
	.p2align	4, 0x90
	.type	_ZN4core3ptr462drop_in_place$LT$core..iter..adapters..map..map_fold$LT$usize$C$f64$C$$LP$$RP$$C$rust_simd..data..$u7b$$u7b$closure$u7d$$u7d$$C$core..iter..traits..iterator..Iterator..for_each..call$LT$f64$C$alloc..vec..Vec$LT$f64$GT$..extend_trusted$LT$core..iter..adapters..map..Map$LT$core..ops..range..Range$LT$usize$GT$$C$rust_simd..data..$u7b$$u7b$closure$u7d$$u7d$$GT$$GT$..$u7b$$u7b$closure$u7d$$u7d$$GT$..$u7b$$u7b$closure$u7d$$u7d$$GT$..$u7b$$u7b$closure$u7d$$u7d$$GT$17h50cb6892e4b22384E,@function
_ZN4core3ptr462drop_in_place$LT$core..iter..adapters..map..map_fold$LT$usize$C$f64$C$$LP$$RP$$C$rust_simd..data..$u7b$$u7b$closure$u7d$$u7d$$C$core..iter..traits..iterator..Iterator..for_each..call$LT$f64$C$alloc..vec..Vec$LT$f64$GT$..extend_trusted$LT$core..iter..adapters..map..Map$LT$core..ops..range..Range$LT$usize$GT$$C$rust_simd..data..$u7b$$u7b$closure$u7d$$u7d$$GT$$GT$..$u7b$$u7b$closure$u7d$$u7d$$GT$..$u7b$$u7b$closure$u7d$$u7d$$GT$..$u7b$$u7b$closure$u7d$$u7d$$GT$17h50cb6892e4b22384E:
.Lfunc_begin0:
	.cfi_startproc
	.file	1 "/rustc/58eefc33adf769a1abe12ad94b3e6811185b4ce5/library/alloc/src/vec" "set_len_on_drop.rs"
	.loc	1 31 9 prologue_end
	mov	qword ptr [rdi], rsi
.Ltmp0:
	.file	2 "/rustc/58eefc33adf769a1abe12ad94b3e6811185b4ce5/library/core/src/ptr" "mod.rs"
	.loc	2 497 1
	ret
.Ltmp1:
.Lfunc_end0:
	.size	_ZN4core3ptr462drop_in_place$LT$core..iter..adapters..map..map_fold$LT$usize$C$f64$C$$LP$$RP$$C$rust_simd..data..$u7b$$u7b$closure$u7d$$u7d$$C$core..iter..traits..iterator..Iterator..for_each..call$LT$f64$C$alloc..vec..Vec$LT$f64$GT$..extend_trusted$LT$core..iter..adapters..map..Map$LT$core..ops..range..Range$LT$usize$GT$$C$rust_simd..data..$u7b$$u7b$closure$u7d$$u7d$$GT$$GT$..$u7b$$u7b$closure$u7d$$u7d$$GT$..$u7b$$u7b$closure$u7d$$u7d$$GT$..$u7b$$u7b$closure$u7d$$u7d$$GT$17h50cb6892e4b22384E, .Lfunc_end0-_ZN4core3ptr462drop_in_place$LT$core..iter..adapters..map..map_fold$LT$usize$C$f64$C$$LP$$RP$$C$rust_simd..data..$u7b$$u7b$closure$u7d$$u7d$$C$core..iter..traits..iterator..Iterator..for_each..call$LT$f64$C$alloc..vec..Vec$LT$f64$GT$..extend_trusted$LT$core..iter..adapters..map..Map$LT$core..ops..range..Range$LT$usize$GT$$C$rust_simd..data..$u7b$$u7b$closure$u7d$$u7d$$GT$$GT$..$u7b$$u7b$closure$u7d$$u7d$$GT$..$u7b$$u7b$closure$u7d$$u7d$$GT$..$u7b$$u7b$closure$u7d$$u7d$$GT$17h50cb6892e4b22384E
	.cfi_endproc

	.section	".text._ZN4core3ptr47drop_in_place$LT$alloc..vec..Vec$LT$f64$GT$$GT$17h86f1452e957a03daE","ax",@progbits
	.p2align	4, 0x90
	.type	_ZN4core3ptr47drop_in_place$LT$alloc..vec..Vec$LT$f64$GT$$GT$17h86f1452e957a03daE,@function
_ZN4core3ptr47drop_in_place$LT$alloc..vec..Vec$LT$f64$GT$$GT$17h86f1452e957a03daE:
.Lfunc_begin1:
	.cfi_startproc
	.file	3 "/rustc/58eefc33adf769a1abe12ad94b3e6811185b4ce5/library/alloc/src" "raw_vec.rs"
	.loc	3 240 25 prologue_end
	test	rsi, rsi
	.loc	3 240 12 is_stmt 0
	je	.LBB1_1
.Ltmp2:
	.file	4 "/rustc/58eefc33adf769a1abe12ad94b3e6811185b4ce5/library/core/src/num" "mod.rs"
	.loc	4 1267 5 is_stmt 1
	shl	rsi, 3
.Ltmp3:
	.file	5 "/rustc/58eefc33adf769a1abe12ad94b3e6811185b4ce5/library/alloc/src" "alloc.rs"
	.loc	5 117 14
	mov	edx, 8
	jmp	qword ptr [rip + __rust_dealloc@GOTPCREL]
.Ltmp4:
.LBB1_1:
	.loc	2 497 1
	ret
.Ltmp5:
.Lfunc_end1:
	.size	_ZN4core3ptr47drop_in_place$LT$alloc..vec..Vec$LT$f64$GT$$GT$17h86f1452e957a03daE, .Lfunc_end1-_ZN4core3ptr47drop_in_place$LT$alloc..vec..Vec$LT$f64$GT$$GT$17h86f1452e957a03daE
	.cfi_endproc
	.file	6 "/rustc/58eefc33adf769a1abe12ad94b3e6811185b4ce5/library/core/src/num" "uint_macros.rs"

	.section	".text._ZN4core3ptr50drop_in_place$LT$rand..rngs..thread..ThreadRng$GT$17hc5d421531b92d63bE","ax",@progbits
	.p2align	4, 0x90
	.type	_ZN4core3ptr50drop_in_place$LT$rand..rngs..thread..ThreadRng$GT$17hc5d421531b92d63bE,@function
_ZN4core3ptr50drop_in_place$LT$rand..rngs..thread..ThreadRng$GT$17hc5d421531b92d63bE:
.Lfunc_begin2:
	.cfi_startproc
	.loc	2 1379 9 prologue_end
	dec	qword ptr [rdi]
.Ltmp6:
	.file	7 "/rustc/58eefc33adf769a1abe12ad94b3e6811185b4ce5/library/alloc/src" "rc.rs"
	.loc	7 2088 16
	jne	.LBB2_2
.Ltmp7:
	.loc	2 1379 9
	dec	qword ptr [rdi + 8]
.Ltmp8:
	.loc	7 2096 20
	je	.LBB2_3
.Ltmp9:
.LBB2_2:
	.loc	2 497 1
	ret
.LBB2_3:
.Ltmp10:
	.loc	5 117 14
	mov	esi, 368
	mov	edx, 16
	jmp	qword ptr [rip + __rust_dealloc@GOTPCREL]
.Ltmp11:
.Lfunc_end2:
	.size	_ZN4core3ptr50drop_in_place$LT$rand..rngs..thread..ThreadRng$GT$17hc5d421531b92d63bE, .Lfunc_end2-_ZN4core3ptr50drop_in_place$LT$rand..rngs..thread..ThreadRng$GT$17hc5d421531b92d63bE
	.cfi_endproc
	.file	8 "/rustc/58eefc33adf769a1abe12ad94b3e6811185b4ce5/library/core/src/mem" "mod.rs"
	.file	9 "/rustc/58eefc33adf769a1abe12ad94b3e6811185b4ce5/library/core/src" "cell.rs"

	.section	.text._ZN4core9core_arch3x863avx15_mm256_loadu_pd17hb72cc6a114b5a0bfE,"ax",@progbits
	.p2align	4, 0x90
	.type	_ZN4core9core_arch3x863avx15_mm256_loadu_pd17hb72cc6a114b5a0bfE,@function
_ZN4core9core_arch3x863avx15_mm256_loadu_pd17hb72cc6a114b5a0bfE:
.Lfunc_begin3:
	.cfi_startproc
	.file	10 "/rustc/58eefc33adf769a1abe12ad94b3e6811185b4ce5/library/core/src" "intrinsics.rs"
	.loc	10 2684 9 prologue_end
	vmovups	ymm0, ymmword ptr [rsi]
.Ltmp12:
	.file	11 "/rustc/58eefc33adf769a1abe12ad94b3e6811185b4ce5/library/core/src/../../stdarch/crates/core_arch/src/x86" "avx.rs"
	.loc	11 1429 5
	vmovaps	ymmword ptr [rdi], ymm0
.Ltmp13:
	.loc	11 1430 2
	vzeroupper
.Ltmp14:
	ret
.Ltmp15:
.Lfunc_end3:
	.size	_ZN4core9core_arch3x863avx15_mm256_loadu_pd17hb72cc6a114b5a0bfE, .Lfunc_end3-_ZN4core9core_arch3x863avx15_mm256_loadu_pd17hb72cc6a114b5a0bfE
	.cfi_endproc

	.section	.text._ZN4core9core_arch3x863avx16_mm256_storeu_pd17h57434a0494370bedE,"ax",@progbits
	.p2align	4, 0x90
	.type	_ZN4core9core_arch3x863avx16_mm256_storeu_pd17h57434a0494370bedE,@function
_ZN4core9core_arch3x863avx16_mm256_storeu_pd17h57434a0494370bedE:
.Lfunc_begin4:
	.cfi_startproc
	.loc	11 1442 5 prologue_end
	vmovaps	ymm0, ymmword ptr [rsi]
	vmovups	ymmword ptr [rdi], ymm0
	.loc	11 1443 2
	vzeroupper
	ret
.Ltmp16:
.Lfunc_end4:
	.size	_ZN4core9core_arch3x863avx16_mm256_storeu_pd17h57434a0494370bedE, .Lfunc_end4-_ZN4core9core_arch3x863avx16_mm256_storeu_pd17h57434a0494370bedE
	.cfi_endproc

	.section	.text._ZN4core9core_arch3x863fma15_mm256_fmadd_pd17h40a9f12a2401947eE,"ax",@progbits
	.p2align	4, 0x90
	.type	_ZN4core9core_arch3x863fma15_mm256_fmadd_pd17h40a9f12a2401947eE,@function
_ZN4core9core_arch3x863fma15_mm256_fmadd_pd17h40a9f12a2401947eE:
.Lfunc_begin5:
	.cfi_startproc
	.file	12 "/rustc/58eefc33adf769a1abe12ad94b3e6811185b4ce5/library/core/src/../../stdarch/crates/core_arch/src/x86" "fma.rs"
	.loc	12 48 5 prologue_end
	vmovapd	ymm0, ymmword ptr [rsi]
	vmovapd	ymm1, ymmword ptr [rdx]
	vfmadd213pd	ymm1, ymm0, ymmword ptr [rcx]
	vmovapd	ymmword ptr [rdi], ymm1
	.loc	12 49 2
	vzeroupper
	ret
.Ltmp17:
.Lfunc_end5:
	.size	_ZN4core9core_arch3x863fma15_mm256_fmadd_pd17h40a9f12a2401947eE, .Lfunc_end5-_ZN4core9core_arch3x863fma15_mm256_fmadd_pd17h40a9f12a2401947eE
	.cfi_endproc

	.section	.text._ZN4rand3rng3Rng3gen17ha17401d23908e973E,"ax",@progbits
	.p2align	4, 0x90
	.type	_ZN4rand3rng3Rng3gen17ha17401d23908e973E,@function
_ZN4rand3rng3Rng3gen17ha17401d23908e973E:
.Lfunc_begin6:
	.file	13 "/home/sri/.cargo/registry/src/index.crates.io-6f17d22bba15001f/rand-0.8.5/src" "rng.rs"
	.loc	13 93 0
	.cfi_startproc
	push	r15
	.cfi_def_cfa_offset 16
	push	r14
	.cfi_def_cfa_offset 24
	push	r12
	.cfi_def_cfa_offset 32
	push	rbx
	.cfi_def_cfa_offset 40
	push	rax
	.cfi_def_cfa_offset 48
	.cfi_offset rbx, -40
	.cfi_offset r12, -32
	.cfi_offset r14, -24
	.cfi_offset r15, -16
	mov	rbx, rdi
.Ltmp18:
	.loc	9 2077 9 prologue_end
	lea	r14, [rdi + 16]
.Ltmp19:
	.file	14 "/home/sri/.cargo/registry/src/index.crates.io-6f17d22bba15001f/rand_core-0.6.4/src" "block.rs"
	.loc	14 205 21
	mov	rax, qword ptr [rdi + 272]
.Ltmp20:
	.loc	14 206 12
	cmp	rax, 63
	jae	.LBB6_1
.Ltmp21:
	.loc	14 207 13
	lea	rcx, [rax + 2]
	mov	qword ptr [rbx + 272], rcx
.Ltmp22:
	.loc	14 200 23
	mov	rax, qword ptr [rbx + 4*rax + 16]
.Ltmp23:
	.loc	14 0 23 is_stmt 0
	jmp	.LBB6_12
.Ltmp24:
.LBB6_1:
	.loc	14 210 19 is_stmt 1
	jne	.LBB6_7
.Ltmp25:
	.loc	14 214 31
	mov	r12d, dword ptr [rbx + 268]
.Ltmp26:
	.loc	14 176 9
	lea	r15, [rbx + 288]
.Ltmp27:
	.file	15 "/home/sri/.cargo/registry/src/index.crates.io-6f17d22bba15001f/rand-0.8.5/src/rngs/adapter" "reseeding.rs"
	.loc	15 174 35
	call	qword ptr [rip + _ZN4rand4rngs7adapter9reseeding4fork16get_fork_counter17hdd69630fe3f0c0eaE@GOTPCREL]
.Ltmp28:
	.loc	15 175 12
	mov	rcx, qword ptr [rbx + 344]
	test	rcx, rcx
	jle	.LBB6_5
.Ltmp29:
	mov	rdx, qword ptr [rbx + 352]
	sub	rdx, rax
	js	.LBB6_5
.Ltmp30:
	.loc	15 182 9
	add	rcx, -256
	mov	qword ptr [rbx + 344], rcx
.Ltmp31:
	.file	16 "/home/sri/.cargo/registry/src/index.crates.io-6f17d22bba15001f/rand_chacha-0.3.1/src" "guts.rs"
	.loc	16 85 9
	mov	rdi, r15
	mov	esi, 6
	mov	rdx, r14
	call	qword ptr [rip + _ZN11rand_chacha4guts11refill_wide17h7145549c658e9a06E@GOTPCREL]
.Ltmp32:
	.loc	16 0 9 is_stmt 0
	jmp	.LBB6_6
.Ltmp33:
.LBB6_7:
	.loc	14 176 9 is_stmt 1
	lea	r15, [rbx + 288]
.Ltmp34:
	.loc	15 174 35
	call	qword ptr [rip + _ZN4rand4rngs7adapter9reseeding4fork16get_fork_counter17hdd69630fe3f0c0eaE@GOTPCREL]
.Ltmp35:
	.loc	15 175 12
	mov	rcx, qword ptr [rbx + 344]
	test	rcx, rcx
	jle	.LBB6_10
.Ltmp36:
	mov	rdx, qword ptr [rbx + 352]
	sub	rdx, rax
	js	.LBB6_10
.Ltmp37:
	.loc	15 182 9
	add	rcx, -256
	mov	qword ptr [rbx + 344], rcx
.Ltmp38:
	.loc	16 85 9
	mov	rdi, r15
	mov	esi, 6
	mov	rdx, r14
	call	qword ptr [rip + _ZN11rand_chacha4guts11refill_wide17h7145549c658e9a06E@GOTPCREL]
.Ltmp39:
	.loc	16 0 9 is_stmt 0
	jmp	.LBB6_11
.Ltmp40:
.LBB6_5:
	.loc	15 179 20 is_stmt 1
	mov	rdi, r15
	mov	rsi, r14
	mov	rdx, rax
	call	_ZN4rand4rngs7adapter9reseeding29ReseedingCore$LT$R$C$Rsdr$GT$19reseed_and_generate17hec549dc3fa5c2bacE
.Ltmp41:
.LBB6_6:
	.loc	14 177 9
	mov	qword ptr [rbx + 272], 1
.Ltmp42:
	.file	17 "/rustc/58eefc33adf769a1abe12ad94b3e6811185b4ce5/library/core/src/convert" "num.rs"
	.loc	17 107 1
	mov	eax, dword ptr [rbx + 16]
.Ltmp43:
	.loc	14 217 13
	shl	rax, 32
.Ltmp44:
	or	rax, r12
	jmp	.LBB6_12
.Ltmp45:
.LBB6_10:
	.loc	15 179 20
	mov	rdi, r15
	mov	rsi, r14
	mov	rdx, rax
	call	_ZN4rand4rngs7adapter9reseeding29ReseedingCore$LT$R$C$Rsdr$GT$19reseed_and_generate17hec549dc3fa5c2bacE
.Ltmp46:
.LBB6_11:
	.loc	14 177 9
	mov	qword ptr [rbx + 272], 2
.Ltmp47:
	.loc	14 200 23
	mov	rax, qword ptr [rbx + 16]
.Ltmp48:
.LBB6_12:
	.loc	13 96 6 epilogue_begin
	add	rsp, 8
	.cfi_def_cfa_offset 40
	pop	rbx
	.cfi_def_cfa_offset 32
	pop	r12
	.cfi_def_cfa_offset 24
	pop	r14
	.cfi_def_cfa_offset 16
	pop	r15
	.cfi_def_cfa_offset 8
	ret
.Ltmp49:
.Lfunc_end6:
	.size	_ZN4rand3rng3Rng3gen17ha17401d23908e973E, .Lfunc_end6-_ZN4rand3rng3Rng3gen17ha17401d23908e973E
	.cfi_endproc
	.file	18 "/home/sri/.cargo/registry/src/index.crates.io-6f17d22bba15001f/rand-0.8.5/src/rngs" "thread.rs"
	.file	19 "/home/sri/.cargo/registry/src/index.crates.io-6f17d22bba15001f/rand-0.8.5/src/distributions" "integer.rs"
	.file	20 "/home/sri/.cargo/registry/src/index.crates.io-6f17d22bba15001f/rand_chacha-0.3.1/src" "chacha.rs"

	.section	".text._ZN4rand4rngs7adapter9reseeding29ReseedingCore$LT$R$C$Rsdr$GT$19reseed_and_generate17hec549dc3fa5c2bacE","ax",@progbits
	.p2align	4, 0x90
	.type	_ZN4rand4rngs7adapter9reseeding29ReseedingCore$LT$R$C$Rsdr$GT$19reseed_and_generate17hec549dc3fa5c2bacE,@function
_ZN4rand4rngs7adapter9reseeding29ReseedingCore$LT$R$C$Rsdr$GT$19reseed_and_generate17hec549dc3fa5c2bacE:
.Lfunc_begin7:
	.loc	15 241 0
	.cfi_startproc
	.cfi_personality 155, DW.ref.rust_eh_personality
	.cfi_lsda 27, .Lexception0
	push	r15
	.cfi_def_cfa_offset 16
	push	r14
	.cfi_def_cfa_offset 24
	push	r13
	.cfi_def_cfa_offset 32
	push	r12
	.cfi_def_cfa_offset 40
	push	rbx
	.cfi_def_cfa_offset 48
	sub	rsp, 112
	.cfi_def_cfa_offset 160
	.cfi_offset rbx, -48
	.cfi_offset r12, -40
	.cfi_offset r13, -32
	.cfi_offset r14, -24
	.cfi_offset r15, -16
	mov	r15, rdx
	mov	rbx, rsi
	mov	r14, rdi
.Ltmp53:
	.file	21 "/rustc/58eefc33adf769a1abe12ad94b3e6811185b4ce5/library/core/src/array" "mod.rs"
	.loc	21 439 17 prologue_end
	xorps	xmm0, xmm0
	movaps	xmmword ptr [rsp + 16], xmm0
	movaps	xmmword ptr [rsp], xmm0
.Ltmp54:
	.loc	21 0 17 is_stmt 0
	mov	rsi, rsp
.Ltmp55:
	.file	22 "/home/sri/.cargo/registry/src/index.crates.io-6f17d22bba15001f/rand_core-0.6.4/src" "lib.rs"
	.loc	22 442 9 is_stmt 1
	mov	edx, 32
.Ltmp56:
	call	qword ptr [rip + _ZN59_$LT$rand_core..os..OsRng$u20$as$u20$rand_core..RngCore$GT$14try_fill_bytes17hf3904316ac6d6932E@GOTPCREL]
.Ltmp57:
	.file	23 "/rustc/58eefc33adf769a1abe12ad94b3e6811185b4ce5/library/core/src" "result.rs"
	.loc	23 1949 15
	test	rax, rax
.Ltmp58:
	.loc	22 392 9
	je	.LBB7_1
.Ltmp59:
.Ltmp50:
	mov	r12, rax
	mov	r13, rdx
.Ltmp60:
	.loc	2 497 1
	mov	rdi, rax
	call	qword ptr [rdx]
.Ltmp51:
.Ltmp61:
	.loc	8 394 14
	mov	rsi, qword ptr [r13 + 8]
.Ltmp62:
	.file	24 "/rustc/58eefc33adf769a1abe12ad94b3e6811185b4ce5/library/alloc/src" "boxed.rs"
	.loc	24 1234 16
	test	rsi, rsi
	je	.LBB7_6
.Ltmp63:
	.loc	24 0 0 is_stmt 0
	mov	rdx, qword ptr [r13 + 16]
.Ltmp64:
	.loc	5 117 14 is_stmt 1
	mov	rdi, r12
	call	qword ptr [rip + __rust_dealloc@GOTPCREL]
.Ltmp65:
	.loc	5 0 14 is_stmt 0
	jmp	.LBB7_6
.Ltmp66:
.LBB7_1:
	.loc	22 393 28 is_stmt 1
	movaps	xmm0, xmmword ptr [rsp]
	movaps	xmm1, xmmword ptr [rsp + 16]
	movups	xmmword ptr [rsp + 96], xmm1
	movups	xmmword ptr [rsp + 80], xmm0
.Ltmp67:
	.loc	16 73 9
	lea	rdx, [rip + .L__unnamed_1]
.Ltmp68:
	.loc	16 0 9 is_stmt 0
	lea	rdi, [rsp + 32]
	lea	rsi, [rsp + 80]
	.loc	16 73 9
	mov	ecx, 8
	call	qword ptr [rip + _ZN11rand_chacha4guts11init_chacha17hf363bce334c2b0b0E@GOTPCREL]
.Ltmp69:
	.loc	22 393 9 is_stmt 1
	mov	rax, qword ptr [rsp + 32]
.Ltmp70:
	mov	rcx, qword ptr [rsp + 72]
	mov	qword ptr [r14 + 40], rcx
	movups	xmm0, xmmword ptr [rsp + 56]
	movups	xmmword ptr [r14 + 24], xmm0
	movups	xmm0, xmmword ptr [rsp + 40]
	movups	xmmword ptr [r14 + 8], xmm0
.Ltmp71:
	.loc	15 221 39
	mov	rcx, qword ptr [r14 + 48]
	.loc	15 221 13 is_stmt 0
	mov	qword ptr [r14 + 56], rcx
	.loc	15 222 13 is_stmt 1
	mov	qword ptr [r14], rax
.Ltmp72:
.LBB7_6:
	.loc	15 257 9
	mov	qword ptr [r14 + 64], r15
	mov	rax, -256
	.loc	15 259 9
	add	rax, qword ptr [r14 + 48]
	mov	qword ptr [r14 + 56], rax
.Ltmp73:
	.loc	16 85 9
	mov	rdi, r14
	mov	esi, 6
	mov	rdx, rbx
	call	qword ptr [rip + _ZN11rand_chacha4guts11refill_wide17h7145549c658e9a06E@GOTPCREL]
.Ltmp74:
	.loc	15 261 6 epilogue_begin
	add	rsp, 112
	.cfi_def_cfa_offset 48
	pop	rbx
.Ltmp75:
	.cfi_def_cfa_offset 40
	pop	r12
	.cfi_def_cfa_offset 32
	pop	r13
	.cfi_def_cfa_offset 24
	pop	r14
.Ltmp76:
	.cfi_def_cfa_offset 16
	pop	r15
.Ltmp77:
	.cfi_def_cfa_offset 8
	ret
.Ltmp78:
.LBB7_2:
	.cfi_def_cfa_offset 160
.Ltmp52:
	.loc	15 0 6 is_stmt 0
	mov	rbx, rax
.Ltmp79:
	.loc	2 497 1 is_stmt 1
	mov	rdi, r12
	mov	rsi, r13
	call	_ZN72_$LT$alloc..boxed..Box$LT$T$C$A$GT$$u20$as$u20$core..ops..drop..Drop$GT$4drop17h91ac55f6026d9157E
	mov	rdi, rbx
	call	_Unwind_Resume@PLT
	ud2
.Ltmp80:
.Lfunc_end7:
	.size	_ZN4rand4rngs7adapter9reseeding29ReseedingCore$LT$R$C$Rsdr$GT$19reseed_and_generate17hec549dc3fa5c2bacE, .Lfunc_end7-_ZN4rand4rngs7adapter9reseeding29ReseedingCore$LT$R$C$Rsdr$GT$19reseed_and_generate17hec549dc3fa5c2bacE
	.cfi_endproc
	.file	25 "/rustc/58eefc33adf769a1abe12ad94b3e6811185b4ce5/library/core/src/alloc" "layout.rs"
	.section	".gcc_except_table._ZN4rand4rngs7adapter9reseeding29ReseedingCore$LT$R$C$Rsdr$GT$19reseed_and_generate17hec549dc3fa5c2bacE","a",@progbits
	.p2align	2, 0x0
GCC_except_table7:
.Lexception0:
	.byte	255
	.byte	255
	.byte	1
	.uleb128 .Lcst_end0-.Lcst_begin0
.Lcst_begin0:
	.uleb128 .Lfunc_begin7-.Lfunc_begin7
	.uleb128 .Ltmp50-.Lfunc_begin7
	.byte	0
	.byte	0
	.uleb128 .Ltmp50-.Lfunc_begin7
	.uleb128 .Ltmp51-.Ltmp50
	.uleb128 .Ltmp52-.Lfunc_begin7
	.byte	0
	.uleb128 .Ltmp51-.Lfunc_begin7
	.uleb128 .Lfunc_end7-.Ltmp51
	.byte	0
	.byte	0
.Lcst_end0:
	.p2align	2, 0x0

	.section	".text._ZN72_$LT$alloc..boxed..Box$LT$T$C$A$GT$$u20$as$u20$core..ops..drop..Drop$GT$4drop17h91ac55f6026d9157E","ax",@progbits
	.p2align	4, 0x90
	.type	_ZN72_$LT$alloc..boxed..Box$LT$T$C$A$GT$$u20$as$u20$core..ops..drop..Drop$GT$4drop17h91ac55f6026d9157E,@function
_ZN72_$LT$alloc..boxed..Box$LT$T$C$A$GT$$u20$as$u20$core..ops..drop..Drop$GT$4drop17h91ac55f6026d9157E:
.Lfunc_begin8:
	.loc	24 1227 0
	.cfi_startproc
	mov	rax, rsi
.Ltmp81:
	.loc	8 394 14 prologue_end
	mov	rsi, qword ptr [rsi + 8]
.Ltmp82:
	.loc	24 1234 16
	test	rsi, rsi
	je	.LBB8_1
.Ltmp83:
	.loc	24 0 0 is_stmt 0
	mov	rdx, qword ptr [rax + 16]
.Ltmp84:
	.loc	5 117 14 is_stmt 1
	jmp	qword ptr [rip + __rust_dealloc@GOTPCREL]
.Ltmp85:
.LBB8_1:
	.loc	24 1238 6
	ret
.Ltmp86:
.Lfunc_end8:
	.size	_ZN72_$LT$alloc..boxed..Box$LT$T$C$A$GT$$u20$as$u20$core..ops..drop..Drop$GT$4drop17h91ac55f6026d9157E, .Lfunc_end8-_ZN72_$LT$alloc..boxed..Box$LT$T$C$A$GT$$u20$as$u20$core..ops..drop..Drop$GT$4drop17h91ac55f6026d9157E
	.cfi_endproc

	.section	.rodata.cst8,"aM",@progbits,8
	.p2align	3, 0x0
.LCPI9_0:
	.quad	0x3ca0000000000000
	.section	.text._ZN9rust_simd4data17h63b53760b18ca8b5E,"ax",@progbits
	.globl	_ZN9rust_simd4data17h63b53760b18ca8b5E
	.p2align	4, 0x90
	.type	_ZN9rust_simd4data17h63b53760b18ca8b5E,@function
_ZN9rust_simd4data17h63b53760b18ca8b5E:
.Lfunc_begin9:
	.file	26 "/home/sri/Github/rust-simd" "src/lib.rs"
	.loc	26 9 0
	.cfi_startproc
	.cfi_personality 155, DW.ref.rust_eh_personality
	.cfi_lsda 27, .Lexception1
	push	rbp
	.cfi_def_cfa_offset 16
	push	r15
	.cfi_def_cfa_offset 24
	push	r14
	.cfi_def_cfa_offset 32
	push	r13
	.cfi_def_cfa_offset 40
	push	r12
	.cfi_def_cfa_offset 48
	push	rbx
	.cfi_def_cfa_offset 56
	sub	rsp, 40
	.cfi_def_cfa_offset 96
	.cfi_offset rbx, -56
	.cfi_offset r12, -48
	.cfi_offset r13, -40
	.cfi_offset r14, -32
	.cfi_offset r15, -24
	.cfi_offset rbp, -16
	mov	r12, rsi
	mov	r15, rdi
.Ltmp104:
	.loc	26 12 19 prologue_end
	call	qword ptr [rip + _ZN4rand4rngs6thread10thread_rng17h9d412aaad3edd22eE@GOTPCREL]
.Ltmp105:
	mov	rbx, rax
.Ltmp106:
	.loc	26 14 23
	mov	r14, r12
	shl	r14, 10
.Ltmp107:
	.loc	3 170 12
	je	.LBB9_30
.Ltmp108:
	.loc	25 447 37
	mov	rax, r14
	shr	rax, 60
.Ltmp109:
	.loc	3 175 26
	jne	.LBB9_2
.Ltmp110:
	.loc	3 0 0 is_stmt 0
	shl	r12, 13
.Ltmp111:
	mov	qword ptr [rsp + 8], r12
.Ltmp112:
	.loc	5 177 9 is_stmt 1
	je	.LBB9_5
.Ltmp113:
	.loc	2 1546 9
	mov	rax, qword ptr [rip + __rust_no_alloc_shim_is_unstable@GOTPCREL]
	movzx	eax, byte ptr [rax]
.Ltmp114:
	.loc	5 98 9
	mov	esi, 8
	mov	rdi, r12
	call	qword ptr [rip + __rust_alloc@GOTPCREL]
	mov	r12, rax
.Ltmp115:
	.loc	3 187 29
	test	rax, rax
	.loc	3 187 23 is_stmt 0
	jne	.LBB9_6
.Ltmp116:
.Ltmp87:
	.loc	3 189 27 is_stmt 1
	mov	edi, 8
	mov	rsi, qword ptr [rsp + 8]
	call	qword ptr [rip + _ZN5alloc5alloc18handle_alloc_error17h47b46fb3282835c3E@GOTPCREL]
.Ltmp88:
	jmp	.LBB9_3
.Ltmp117:
.LBB9_30:
	.loc	3 0 27 is_stmt 0
	mov	ebp, 8
.Ltmp118:
	mov	r12d, 8
.Ltmp119:
	jmp	.LBB9_31
.Ltmp120:
.LBB9_5:
	mov	r12d, 8
.Ltmp121:
.LBB9_6:
	.file	27 "/rustc/58eefc33adf769a1abe12ad94b3e6811185b4ce5/library/alloc/src/vec" "mod.rs"
	.loc	27 670 9 is_stmt 1
	mov	qword ptr [rsp + 16], r12
	mov	qword ptr [rsp + 24], r14
	lea	r13, [rsp + 32]
	mov	qword ptr [rsp + 32], 0
	xor	ebp, ebp
.Ltmp122:
	.p2align	4, 0x90
.LBB9_7:
.Ltmp89:
	.file	28 "/home/sri/.cargo/registry/src/index.crates.io-6f17d22bba15001f/rand-0.8.5/src/distributions" "float.rs"
	.loc	28 154 1
	mov	rdi, rbx
	call	_ZN4rand3rng3Rng3gen17ha17401d23908e973E
.Ltmp90:
.Ltmp123:
	.loc	28 154 1 is_stmt 0
	shr	rax, 11
.Ltmp124:
	.file	29 "/home/sri/.cargo/registry/src/index.crates.io-6f17d22bba15001f/rand-0.8.5/src/distributions" "utils.rs"
	.loc	29 360 1 is_stmt 1
	xorps	xmm0, xmm0
	cvtsi2sd	xmm0, rax
.Ltmp125:
	.loc	28 154 1
	mulsd	xmm0, qword ptr [rip + .LCPI9_0]
.Ltmp126:
	.loc	2 1379 9
	movsd	qword ptr [r12 + 8*rbp], xmm0
.Ltmp127:
	.loc	1 19 9
	inc	rbp
.Ltmp128:
	.file	30 "/rustc/58eefc33adf769a1abe12ad94b3e6811185b4ce5/library/core/src" "cmp.rs"
	.loc	30 1363 52
	cmp	r14, rbp
.Ltmp129:
	.file	31 "/rustc/58eefc33adf769a1abe12ad94b3e6811185b4ce5/library/core/src/iter" "range.rs"
	.loc	31 621 12
	jne	.LBB9_7
.Ltmp130:
	.loc	31 0 12 is_stmt 0
	mov	rdi, qword ptr [rsp + 8]
.Ltmp131:
	test	rdi, rdi
.Ltmp132:
	.loc	5 177 9 is_stmt 1
	je	.LBB9_10
.Ltmp133:
	.loc	2 1546 9
	mov	rax, qword ptr [rip + __rust_no_alloc_shim_is_unstable@GOTPCREL]
	movzx	eax, byte ptr [rax]
.Ltmp134:
	.loc	5 98 9
	mov	esi, 8
	call	qword ptr [rip + __rust_alloc@GOTPCREL]
	mov	rbp, rax
.Ltmp135:
	.loc	3 187 29
	test	rax, rax
	.loc	3 187 23 is_stmt 0
	jne	.LBB9_11
.Ltmp136:
.Ltmp92:
	.loc	3 189 27 is_stmt 1
	mov	edi, 8
	mov	rsi, qword ptr [rsp + 8]
	call	qword ptr [rip + _ZN5alloc5alloc18handle_alloc_error17h47b46fb3282835c3E@GOTPCREL]
.Ltmp93:
	jmp	.LBB9_3
.Ltmp137:
.LBB9_10:
	.loc	3 0 27 is_stmt 0
	mov	ebp, 8
.Ltmp138:
.LBB9_11:
	.loc	27 670 9 is_stmt 1
	mov	qword ptr [rsp + 16], rbp
	mov	qword ptr [rsp + 24], r14
	mov	qword ptr [rsp + 32], 0
	xor	r13d, r13d
.Ltmp139:
	.p2align	4, 0x90
.LBB9_12:
.Ltmp95:
	.loc	28 154 1
	mov	rdi, rbx
	call	_ZN4rand3rng3Rng3gen17ha17401d23908e973E
.Ltmp96:
.Ltmp140:
	.loc	28 154 1 is_stmt 0
	shr	rax, 11
.Ltmp141:
	.loc	29 360 1 is_stmt 1
	xorps	xmm0, xmm0
	cvtsi2sd	xmm0, rax
.Ltmp142:
	.loc	28 154 1
	mulsd	xmm0, qword ptr [rip + .LCPI9_0]
.Ltmp143:
	.loc	2 1379 9
	movsd	qword ptr [rbp + 8*r13], xmm0
.Ltmp144:
	.loc	1 19 9
	inc	r13
.Ltmp145:
	.loc	30 1363 52
	cmp	r14, r13
.Ltmp146:
	.loc	31 621 12
	jne	.LBB9_12
.Ltmp147:
	.loc	31 0 12 is_stmt 0
	mov	r13, qword ptr [rsp + 8]
.Ltmp148:
	test	r13, r13
.Ltmp149:
	.loc	5 177 9 is_stmt 1
	je	.LBB9_31
.Ltmp150:
	.loc	5 170 14
	mov	esi, 8
	mov	rdi, r13
	call	qword ptr [rip + __rust_alloc_zeroed@GOTPCREL]
.Ltmp151:
	.loc	3 187 29
	test	rax, rax
	.loc	3 187 23 is_stmt 0
	jne	.LBB9_32
.Ltmp152:
.Ltmp98:
	.loc	3 189 27 is_stmt 1
	mov	edi, 8
	mov	rsi, r13
	call	qword ptr [rip + _ZN5alloc5alloc18handle_alloc_error17h47b46fb3282835c3E@GOTPCREL]
.Ltmp153:
.Ltmp99:
	.loc	3 0 27 is_stmt 0
	jmp	.LBB9_3
.Ltmp154:
.LBB9_31:
	mov	eax, 8
.Ltmp155:
.LBB9_32:
	.loc	26 20 5 is_stmt 1
	mov	qword ptr [r15], r12
	mov	qword ptr [r15 + 8], r14
	mov	qword ptr [r15 + 16], r14
	mov	qword ptr [r15 + 24], rbp
	mov	qword ptr [r15 + 32], r14
	mov	qword ptr [r15 + 40], r14
	mov	qword ptr [r15 + 48], rax
	mov	qword ptr [r15 + 56], r14
	mov	qword ptr [r15 + 64], r14
.Ltmp156:
	.loc	2 1379 9
	dec	qword ptr [rbx]
.Ltmp157:
	.loc	7 2088 16
	jne	.LBB9_35
.Ltmp158:
	.loc	2 1379 9
	dec	qword ptr [rbx + 8]
.Ltmp159:
	.loc	7 2096 20
	jne	.LBB9_35
.Ltmp160:
	.loc	5 117 14
	mov	esi, 368
	mov	edx, 16
	mov	rdi, rbx
	call	qword ptr [rip + __rust_dealloc@GOTPCREL]
.Ltmp161:
.LBB9_35:
	.loc	26 23 2
	mov	rax, r15
	.loc	26 23 2 epilogue_begin is_stmt 0
	add	rsp, 40
	.cfi_def_cfa_offset 56
	pop	rbx
	.cfi_def_cfa_offset 48
	pop	r12
	.cfi_def_cfa_offset 40
	pop	r13
	.cfi_def_cfa_offset 32
	pop	r14
	.cfi_def_cfa_offset 24
	pop	r15
	.cfi_def_cfa_offset 16
	pop	rbp
	.cfi_def_cfa_offset 8
	ret
.Ltmp162:
.LBB9_2:
	.cfi_def_cfa_offset 96
.Ltmp101:
	.loc	3 177 27 is_stmt 1
	call	qword ptr [rip + _ZN5alloc7raw_vec17capacity_overflow17h91968fbfa0630e1aE@GOTPCREL]
.Ltmp163:
.Ltmp102:
.LBB9_3:
	.loc	3 0 27 is_stmt 0
	ud2
.Ltmp164:
.LBB9_29:
.Ltmp100:
	mov	r15, rax
.Ltmp165:
	.loc	26 23 1 is_stmt 1
	mov	rdi, rbp
	mov	rsi, r14
	jmp	.LBB9_26
.Ltmp166:
.LBB9_28:
.Ltmp94:
	.loc	26 0 1 is_stmt 0
	mov	r15, rax
	jmp	.LBB9_27
.Ltmp167:
.LBB9_22:
.Ltmp103:
	mov	r15, rax
	jmp	.LBB9_21
.Ltmp168:
.LBB9_25:
.Ltmp97:
	mov	r15, rax
.Ltmp169:
	.file	32 "/rustc/58eefc33adf769a1abe12ad94b3e6811185b4ce5/library/core/src/iter/traits" "iterator.rs"
	.loc	32 2642 5 is_stmt 1
	lea	rdi, [rsp + 32]
	mov	rsi, r13
	call	_ZN4core3ptr462drop_in_place$LT$core..iter..adapters..map..map_fold$LT$usize$C$f64$C$$LP$$RP$$C$rust_simd..data..$u7b$$u7b$closure$u7d$$u7d$$C$core..iter..traits..iterator..Iterator..for_each..call$LT$f64$C$alloc..vec..Vec$LT$f64$GT$..extend_trusted$LT$core..iter..adapters..map..Map$LT$core..ops..range..Range$LT$usize$GT$$C$rust_simd..data..$u7b$$u7b$closure$u7d$$u7d$$GT$$GT$..$u7b$$u7b$closure$u7d$$u7d$$GT$..$u7b$$u7b$closure$u7d$$u7d$$GT$..$u7b$$u7b$closure$u7d$$u7d$$GT$17h50cb6892e4b22384E
.Ltmp170:
	.file	33 "/rustc/58eefc33adf769a1abe12ad94b3e6811185b4ce5/library/alloc/src/vec" "spec_from_iter_nested.rs"
	.loc	33 64 5
	mov	rdi, qword ptr [rsp + 16]
	mov	rsi, qword ptr [rsp + 24]
.Ltmp171:
.LBB9_26:
	.loc	26 0 0 is_stmt 0
	call	_ZN4core3ptr47drop_in_place$LT$alloc..vec..Vec$LT$f64$GT$$GT$17h86f1452e957a03daE
.Ltmp172:
.LBB9_27:
	.loc	26 23 1 is_stmt 1
	mov	rdi, r12
	mov	rsi, r14
	jmp	.LBB9_20
.Ltmp173:
.LBB9_19:
.Ltmp91:
	.loc	26 0 1 is_stmt 0
	mov	r15, rax
.Ltmp174:
	.loc	32 2642 5 is_stmt 1
	mov	rdi, r13
	mov	rsi, rbp
	call	_ZN4core3ptr462drop_in_place$LT$core..iter..adapters..map..map_fold$LT$usize$C$f64$C$$LP$$RP$$C$rust_simd..data..$u7b$$u7b$closure$u7d$$u7d$$C$core..iter..traits..iterator..Iterator..for_each..call$LT$f64$C$alloc..vec..Vec$LT$f64$GT$..extend_trusted$LT$core..iter..adapters..map..Map$LT$core..ops..range..Range$LT$usize$GT$$C$rust_simd..data..$u7b$$u7b$closure$u7d$$u7d$$GT$$GT$..$u7b$$u7b$closure$u7d$$u7d$$GT$..$u7b$$u7b$closure$u7d$$u7d$$GT$..$u7b$$u7b$closure$u7d$$u7d$$GT$17h50cb6892e4b22384E
.Ltmp175:
	.loc	33 64 5
	mov	rdi, qword ptr [rsp + 16]
	mov	rsi, qword ptr [rsp + 24]
.Ltmp176:
.LBB9_20:
	.loc	26 0 0 is_stmt 0
	call	_ZN4core3ptr47drop_in_place$LT$alloc..vec..Vec$LT$f64$GT$$GT$17h86f1452e957a03daE
.Ltmp177:
.LBB9_21:
	.loc	26 23 1 is_stmt 1
	mov	rdi, rbx
	call	_ZN4core3ptr50drop_in_place$LT$rand..rngs..thread..ThreadRng$GT$17hc5d421531b92d63bE
	mov	rdi, r15
	call	_Unwind_Resume@PLT
	ud2
.Ltmp178:
.Lfunc_end9:
	.size	_ZN9rust_simd4data17h63b53760b18ca8b5E, .Lfunc_end9-_ZN9rust_simd4data17h63b53760b18ca8b5E
	.cfi_endproc
	.file	34 "/rustc/58eefc33adf769a1abe12ad94b3e6811185b4ce5/library/alloc/src/vec" "spec_from_iter.rs"
	.file	35 "/rustc/58eefc33adf769a1abe12ad94b3e6811185b4ce5/library/core/src/iter/adapters" "map.rs"
	.file	36 "/rustc/58eefc33adf769a1abe12ad94b3e6811185b4ce5/library/alloc/src/vec" "spec_extend.rs"
	.file	37 "/rustc/58eefc33adf769a1abe12ad94b3e6811185b4ce5/library/alloc/src/vec" "spec_from_elem.rs"
	.file	38 "/rustc/58eefc33adf769a1abe12ad94b3e6811185b4ce5/library/alloc/src" "macros.rs"
	.section	.gcc_except_table._ZN9rust_simd4data17h63b53760b18ca8b5E,"a",@progbits
	.p2align	2, 0x0
GCC_except_table9:
.Lexception1:
	.byte	255
	.byte	255
	.byte	1
	.uleb128 .Lcst_end1-.Lcst_begin1
.Lcst_begin1:
	.uleb128 .Lfunc_begin9-.Lfunc_begin9
	.uleb128 .Ltmp87-.Lfunc_begin9
	.byte	0
	.byte	0
	.uleb128 .Ltmp87-.Lfunc_begin9
	.uleb128 .Ltmp88-.Ltmp87
	.uleb128 .Ltmp103-.Lfunc_begin9
	.byte	0
	.uleb128 .Ltmp89-.Lfunc_begin9
	.uleb128 .Ltmp90-.Ltmp89
	.uleb128 .Ltmp91-.Lfunc_begin9
	.byte	0
	.uleb128 .Ltmp92-.Lfunc_begin9
	.uleb128 .Ltmp93-.Ltmp92
	.uleb128 .Ltmp94-.Lfunc_begin9
	.byte	0
	.uleb128 .Ltmp95-.Lfunc_begin9
	.uleb128 .Ltmp96-.Ltmp95
	.uleb128 .Ltmp97-.Lfunc_begin9
	.byte	0
	.uleb128 .Ltmp98-.Lfunc_begin9
	.uleb128 .Ltmp99-.Ltmp98
	.uleb128 .Ltmp100-.Lfunc_begin9
	.byte	0
	.uleb128 .Ltmp101-.Lfunc_begin9
	.uleb128 .Ltmp102-.Ltmp101
	.uleb128 .Ltmp103-.Lfunc_begin9
	.byte	0
	.uleb128 .Ltmp102-.Lfunc_begin9
	.uleb128 .Lfunc_end9-.Ltmp102
	.byte	0
	.byte	0
.Lcst_end1:
	.p2align	2, 0x0

	.section	.text._ZN9rust_simd10dotp_naive17h3fdada2e9ed6ead2E,"ax",@progbits
	.globl	_ZN9rust_simd10dotp_naive17h3fdada2e9ed6ead2E
	.p2align	4, 0x90
	.type	_ZN9rust_simd10dotp_naive17h3fdada2e9ed6ead2E,@function
_ZN9rust_simd10dotp_naive17h3fdada2e9ed6ead2E:
.Lfunc_begin10:
	.loc	26 26 0
	.cfi_startproc
	.loc	30 0 0 is_stmt 0
	cmp	rsi, rcx
	cmovb	rcx, rsi
.Ltmp179:
	cmp	rcx, r9
	cmovae	rcx, r9
.Ltmp180:
	.file	39 "/rustc/58eefc33adf769a1abe12ad94b3e6811185b4ce5/library/core/src/iter/adapters" "zip.rs"
	.loc	39 270 12 prologue_end is_stmt 1
	test	rcx, rcx
	je	.LBB10_7
.Ltmp181:
	cmp	rcx, 4
	jae	.LBB10_3
.Ltmp182:
	.loc	39 0 12 is_stmt 0
	xor	eax, eax
	jmp	.LBB10_6
.Ltmp183:
.LBB10_3:
	.loc	39 270 12
	mov	rax, rcx
	and	rax, -4
	xor	esi, esi
.Ltmp184:
	.p2align	4, 0x90
.LBB10_4:
	.file	40 "/rustc/58eefc33adf769a1abe12ad94b3e6811185b4ce5/library/core/src/ops" "arith.rs"
	.loc	40 346 1 is_stmt 1
	movupd	xmm0, xmmword ptr [rdi + 8*rsi]
	movupd	xmm1, xmmword ptr [rdi + 8*rsi + 16]
	movupd	xmm2, xmmword ptr [rdx + 8*rsi]
.Ltmp185:
	.loc	40 346 1 is_stmt 0
	mulpd	xmm2, xmm0
.Ltmp186:
	.loc	40 346 1
	movupd	xmm0, xmmword ptr [rdx + 8*rsi + 16]
.Ltmp187:
	.loc	40 346 1
	mulpd	xmm0, xmm1
.Ltmp188:
	.loc	26 28 9 is_stmt 1
	movupd	xmm1, xmmword ptr [r8 + 8*rsi]
	addpd	xmm1, xmm2
	movupd	xmm2, xmmword ptr [r8 + 8*rsi + 16]
	addpd	xmm2, xmm0
	movupd	xmmword ptr [r8 + 8*rsi], xmm1
	movupd	xmmword ptr [r8 + 8*rsi + 16], xmm2
.Ltmp189:
	.loc	39 274 13
	add	rsi, 4
	cmp	rax, rsi
	jne	.LBB10_4
.Ltmp190:
	.loc	39 270 12
	cmp	rcx, rax
	je	.LBB10_7
.Ltmp191:
	.p2align	4, 0x90
.LBB10_6:
	.loc	40 346 1
	movsd	xmm0, qword ptr [rdi + 8*rax]
.Ltmp192:
	.loc	40 346 1 is_stmt 0
	mulsd	xmm0, qword ptr [rdx + 8*rax]
.Ltmp193:
	.loc	26 28 9 is_stmt 1
	addsd	xmm0, qword ptr [r8 + 8*rax]
	movsd	qword ptr [r8 + 8*rax], xmm0
.Ltmp194:
	.loc	39 274 13
	lea	rsi, [rax + 1]
.Ltmp195:
	.loc	39 0 13 is_stmt 0
	mov	rax, rsi
.Ltmp196:
	.loc	39 270 12 is_stmt 1
	cmp	rcx, rsi
	jne	.LBB10_6
.Ltmp197:
.LBB10_7:
	.loc	26 30 2
	ret
.Ltmp198:
.Lfunc_end10:
	.size	_ZN9rust_simd10dotp_naive17h3fdada2e9ed6ead2E, .Lfunc_end10-_ZN9rust_simd10dotp_naive17h3fdada2e9ed6ead2E
	.cfi_endproc
	.file	41 "/rustc/58eefc33adf769a1abe12ad94b3e6811185b4ce5/library/core/src" "internal_macros.rs"

	.section	.text._ZN9rust_simd9dotp_simd17h0479db21f254413dE,"ax",@progbits
	.globl	_ZN9rust_simd9dotp_simd17h0479db21f254413dE
	.p2align	4, 0x90
	.type	_ZN9rust_simd9dotp_simd17h0479db21f254413dE,@function
_ZN9rust_simd9dotp_simd17h0479db21f254413dE:
.Lfunc_begin11:
	.loc	26 33 0
	.cfi_startproc
	push	rbp
	.cfi_def_cfa_offset 16
	.cfi_offset rbp, -16
	mov	rbp, rsp
	.cfi_def_cfa_register rbp
	push	r15
	push	r14
	push	r13
	push	r12
	push	rbx
	and	rsp, -32
	sub	rsp, 160
	.cfi_offset rbx, -56
	.cfi_offset r12, -48
	.cfi_offset r13, -40
	.cfi_offset r14, -32
	.cfi_offset r15, -24
	mov	rbx, r9
.Ltmp199:
	.file	42 "/rustc/58eefc33adf769a1abe12ad94b3e6811185b4ce5/library/core/src/slice" "iter.rs"
	.loc	42 1882 17 prologue_end
	shr	rsi, 2
.Ltmp200:
	.loc	42 1882 17 is_stmt 0
	shr	rcx, 2
.Ltmp201:
	.loc	30 0 0
	cmp	rsi, rcx
	cmovb	rcx, rsi
.Ltmp202:
	.loc	42 2042 17 is_stmt 1
	shr	rbx, 2
.Ltmp203:
	.loc	30 0 0 is_stmt 0
	cmp	rcx, rbx
	cmovb	rbx, rcx
.Ltmp204:
	.loc	39 270 12 is_stmt 1
	test	rbx, rbx
	je	.LBB11_3
.Ltmp205:
	.loc	39 0 12 is_stmt 0
	mov	r14, r8
	mov	r15, rdx
	mov	r12, rdi
.Ltmp206:
	.p2align	4, 0x90
.LBB11_2:
	mov	rdi, rsp
.Ltmp207:
	.loc	26 41 27 is_stmt 1
	mov	rsi, r12
	call	_ZN4core9core_arch3x863avx15_mm256_loadu_pd17hb72cc6a114b5a0bfE
.Ltmp208:
	.loc	26 0 27 is_stmt 0
	lea	rdi, [rsp + 32]
.Ltmp209:
	.loc	26 42 27 is_stmt 1
	mov	rsi, r15
	call	_ZN4core9core_arch3x863avx15_mm256_loadu_pd17hb72cc6a114b5a0bfE
.Ltmp210:
	.loc	26 0 27 is_stmt 0
	lea	r13, [rsp + 96]
.Ltmp211:
	.loc	26 43 27 is_stmt 1
	mov	rdi, r13
	mov	rsi, r14
	call	_ZN4core9core_arch3x863avx15_mm256_loadu_pd17hb72cc6a114b5a0bfE
.Ltmp212:
	.loc	26 0 27 is_stmt 0
	lea	rdi, [rsp + 64]
.Ltmp213:
	.loc	26 45 50 is_stmt 1
	mov	rsi, rsp
	lea	rdx, [rsp + 32]
	mov	rcx, r13
	call	_ZN4core9core_arch3x863fma15_mm256_fmadd_pd17h40a9f12a2401947eE
	.loc	26 45 17 is_stmt 0
	mov	rdi, r14
	lea	rsi, [rsp + 64]
	call	_ZN4core9core_arch3x863avx16_mm256_storeu_pd17h57434a0494370bedE
.Ltmp214:
	.loc	39 270 12 is_stmt 1
	add	r14, 32
.Ltmp215:
	add	r15, 32
	add	r12, 32
	dec	rbx
	jne	.LBB11_2
.Ltmp216:
.LBB11_3:
	.loc	26 50 2
	lea	rsp, [rbp - 40]
	.loc	26 50 2 epilogue_begin is_stmt 0
	pop	rbx
	pop	r12
	pop	r13
	pop	r14
	pop	r15
	pop	rbp
	.cfi_def_cfa rsp, 8
	ret
.Ltmp217:
.Lfunc_end11:
	.size	_ZN9rust_simd9dotp_simd17h0479db21f254413dE, .Lfunc_end11-_ZN9rust_simd9dotp_simd17h0479db21f254413dE
	.cfi_endproc

	.type	.L__unnamed_1,@object
	.section	.rodata.cst8,"aM",@progbits,8
.L__unnamed_1:
	.zero	8
	.size	.L__unnamed_1, 8

	.section	".text._ZN4core3ptr462drop_in_place$LT$core..iter..adapters..map..map_fold$LT$usize$C$f64$C$$LP$$RP$$C$rust_simd..data..$u7b$$u7b$closure$u7d$$u7d$$C$core..iter..traits..iterator..Iterator..for_each..call$LT$f64$C$alloc..vec..Vec$LT$f64$GT$..extend_trusted$LT$core..iter..adapters..map..Map$LT$core..ops..range..Range$LT$usize$GT$$C$rust_simd..data..$u7b$$u7b$closure$u7d$$u7d$$GT$$GT$..$u7b$$u7b$closure$u7d$$u7d$$GT$..$u7b$$u7b$closure$u7d$$u7d$$GT$..$u7b$$u7b$closure$u7d$$u7d$$GT$17h50cb6892e4b22384E","ax",@progbits
.Lsec_end0:
	.section	".text._ZN4core3ptr47drop_in_place$LT$alloc..vec..Vec$LT$f64$GT$$GT$17h86f1452e957a03daE","ax",@progbits
.Lsec_end1:
	.section	".text._ZN4core3ptr50drop_in_place$LT$rand..rngs..thread..ThreadRng$GT$17hc5d421531b92d63bE","ax",@progbits
.Lsec_end2:
	.section	.text._ZN4core9core_arch3x863avx15_mm256_loadu_pd17hb72cc6a114b5a0bfE,"ax",@progbits
.Lsec_end3:
	.section	.text._ZN4core9core_arch3x863avx16_mm256_storeu_pd17h57434a0494370bedE,"ax",@progbits
.Lsec_end4:
	.section	.text._ZN4core9core_arch3x863fma15_mm256_fmadd_pd17h40a9f12a2401947eE,"ax",@progbits
.Lsec_end5:
	.section	.text._ZN4rand3rng3Rng3gen17ha17401d23908e973E,"ax",@progbits
.Lsec_end6:
	.section	".text._ZN4rand4rngs7adapter9reseeding29ReseedingCore$LT$R$C$Rsdr$GT$19reseed_and_generate17hec549dc3fa5c2bacE","ax",@progbits
.Lsec_end7:
	.section	".text._ZN72_$LT$alloc..boxed..Box$LT$T$C$A$GT$$u20$as$u20$core..ops..drop..Drop$GT$4drop17h91ac55f6026d9157E","ax",@progbits
.Lsec_end8:
	.section	.text._ZN9rust_simd4data17h63b53760b18ca8b5E,"ax",@progbits
.Lsec_end9:
	.section	.text._ZN9rust_simd10dotp_naive17h3fdada2e9ed6ead2E,"ax",@progbits
.Lsec_end10:
	.section	.text._ZN9rust_simd9dotp_simd17h0479db21f254413dE,"ax",@progbits
.Lsec_end11:
	.section	.data.DW.ref.rust_eh_personality,"aGw",@progbits,DW.ref.rust_eh_personality,comdat
	.p2align	3, 0x0
	.type	DW.ref.rust_eh_personality,@object
	.size	DW.ref.rust_eh_personality, 8
DW.ref.rust_eh_personality:
	.quad	rust_eh_personality
	.ident	"rustc version 1.74.0-nightly (58eefc33a 2023-08-24)"
	.section	".note.GNU-stack","",@progbits